target datalayout = "e-m:e-p270:32:32-p271:32:32-p272:64:64-i64:64-i128:128-f80:128-n8:16:32:64-S128"
target triple = "x86_64-pc-linux-gnu"

%struct.SDL_VideoDevice = type { ptr, ptr, ptr, ptr, ptr, ptr, ptr, ptr, ptr, ptr, ptr, ptr, ptr, ptr, ptr, ptr, ptr, ptr, ptr, ptr, ptr, ptr, ptr, ptr, ptr, ptr, ptr, ptr, ptr, ptr, ptr, ptr, ptr, ptr, ptr, ptr, ptr, ptr, ptr, ptr, ptr, ptr, ptr, ptr, ptr, ptr, ptr, ptr, ptr, ptr, ptr, ptr, ptr, ptr, ptr, ptr, ptr, ptr, ptr, ptr, ptr, ptr, ptr, ptr, ptr, ptr, ptr, ptr, ptr, ptr, ptr, ptr, ptr, ptr, ptr, ptr, ptr, ptr, ptr, ptr, ptr, ptr, ptr, ptr, ptr, ptr, ptr, ptr, ptr, ptr, ptr, ptr, ptr, ptr, ptr, ptr, ptr, i64, i8, i8, i8, ptr, i32, ptr, %struct.SDL_Rect, ptr, ptr, i32, ptr, ptr, ptr, ptr, i64, ptr, i8, i32, i32, %struct.anon, ptr, ptr, ptr, ptr, ptr, ptr, %struct.SDL_AtomicInt, %struct.SDL_AtomicInt, i8, %struct.anon.0, ptr, ptr, ptr, ptr, ptr }
%struct.SDL_Rect = type { i32, i32, i32, i32 }
%struct.anon = type { i32, i32, i32, i32, i32, i32, i32, i32, i32, i32, i32, i32, i32, i32, i32, i32, i32, i32, i32, i32, i32, i32, i32, i32, i32, i32, i32, i32, i32, [256 x i8], ptr }
%struct.SDL_AtomicInt = type { i32 }
%struct.anon.0 = type { ptr, ptr, i32, [256 x i8], ptr }
%struct.SDL_VideoData = type { ptr, ptr, i32, ptr, i64, i32, ptr, i32, i64, i64, %struct.X11_ClipboardData, %struct.X11_ClipboardData, ptr, i64, %struct.X11_SettingsData, i8, %struct.anon.1, [256 x i32], i8, i8, i8, i64, i8, %struct.SDL_Point, i32, ptr, i32, i8, i32, %struct.anon.2, i8, i64, ptr, ptr, i8, i8, i8 }
%struct.X11_ClipboardData = type { ptr, ptr, ptr, i64, i32 }
%struct.X11_SettingsData = type { ptr }
%struct.anon.1 = type { i64, i64, i64, i64, i64, i64, i64, i64, i64, i64, i64, i64, i64, i64, i64, i64, i64, i64, i64, i64, i64, i64, i64, i64, i64, i64, i64, i64, i64, i64, i64, i64, i64, i64, i64, i64, i64, i64, i64, i64, i64, i64, i64, i64, i64, i64, i64, i64, i64, i64, i64, i64, i64 }
%struct.SDL_Point = type { i32, i32 }
%struct.anon.2 = type { ptr, i32, i32, i32, i16, i32, i32 }
%struct.anon.4 = type { ptr, ptr, i32, i32, i32, i32, ptr, i64, i64, i64, i32, ptr, i32, i32, i32, i32, i32, ptr, i32, i32, ptr, ptr, i32, i64, i64, ptr, ptr, ptr, ptr, i32, ptr, ptr, ptr, i32, i32, ptr, i64, i64, i32, i32, ptr, ptr, i32, ptr }
%struct.Screen = type { ptr, ptr, i64, i32, i32, i32, i32, i32, ptr, i32, ptr, ptr, i64, i64, i64, i32, i32, i32, i32, i64 }

@X11_XQueryKeymap = external global ptr, align 8
@X11_XQueryPointer = external global ptr, align 8

; Function Attrs: nounwind uwtable
define internal void @X11_UpdateSystemKeyModifiers(ptr noundef %0) #0 {
  %2 = alloca ptr, align 8
  %3 = alloca i64, align 8
  %4 = alloca i32, align 4
  %5 = alloca i32, align 4
  store ptr %0, ptr %2, align 8
  call void @llvm.lifetime.start.p0(i64 8, ptr %3) #7
  call void @llvm.lifetime.start.p0(i64 4, ptr %4) #7
  call void @llvm.lifetime.start.p0(i64 4, ptr %5) #7
  %6 = load ptr, ptr @X11_XQueryPointer, align 8
  %7 = load ptr, ptr %2, align 8
  %8 = getelementptr inbounds nuw %struct.SDL_VideoData, ptr %7, i32 0, i32 0
  %9 = load ptr, ptr %8, align 8
  %10 = load ptr, ptr %2, align 8
  %11 = getelementptr inbounds nuw %struct.SDL_VideoData, ptr %10, i32 0, i32 0
  %12 = load ptr, ptr %11, align 8
  %13 = getelementptr inbounds nuw %struct.anon.4, ptr %12, i32 0, i32 35
  %14 = load ptr, ptr %13, align 8
  %15 = load ptr, ptr %2, align 8
  %16 = getelementptr inbounds nuw %struct.SDL_VideoData, ptr %15, i32 0, i32 0
  %17 = load ptr, ptr %16, align 8
  %18 = getelementptr inbounds nuw %struct.anon.4, ptr %17, i32 0, i32 33
  %19 = load i32, ptr %18, align 8
  %20 = sext i32 %19 to i64
  %21 = getelementptr inbounds %struct.Screen, ptr %14, i64 %20
  %22 = getelementptr inbounds nuw %struct.Screen, ptr %21, i32 0, i32 2
  %23 = load i64, ptr %22, align 8
  %24 = load ptr, ptr %2, align 8
  %25 = getelementptr inbounds nuw %struct.SDL_VideoData, ptr %24, i32 0, i32 29
  %26 = getelementptr inbounds nuw %struct.anon.2, ptr %25, i32 0, i32 3
  %27 = call i32 %6(ptr noundef %9, i64 noundef %23, ptr noundef %3, ptr noundef %3, ptr noundef %4, ptr noundef %5, ptr noundef %4, ptr noundef %5, ptr noundef %26)
  call void @llvm.lifetime.end.p0(i64 4, ptr %5) #7
  call void @llvm.lifetime.end.p0(i64 4, ptr %4) #7
  call void @llvm.lifetime.end.p0(i64 8, ptr %3) #7
  ret void
}

; Function Attrs: nounwind uwtable
define hidden void @X11_ReconcileKeyboardState(ptr noundef %0) #0 {
  %2 = alloca ptr, align 8
  %3 = alloca ptr, align 8
  %4 = alloca ptr, align 8
  %5 = alloca [32 x i8], align 16
  %6 = alloca i32, align 4
  %7 = alloca ptr, align 8
  %8 = alloca i32, align 4
  %9 = alloca i8, align 1
  %10 = alloca i8, align 1
  store ptr %0, ptr %2, align 8
  call void @llvm.lifetime.start.p0(i64 8, ptr %3) #7
  %11 = load ptr, ptr %2, align 8
  %12 = getelementptr inbounds nuw %struct.SDL_VideoDevice, ptr %11, i32 0, i32 128
  %13 = load ptr, ptr %12, align 8
  store ptr %13, ptr %3, align 8
  call void @llvm.lifetime.start.p0(i64 8, ptr %4) #7
  %14 = load ptr, ptr %3, align 8
  %15 = getelementptr inbounds nuw %struct.SDL_VideoData, ptr %14, i32 0, i32 0
  %16 = load ptr, ptr %15, align 8
  store ptr %16, ptr %4, align 8
  call void @llvm.lifetime.start.p0(i64 32, ptr %5) #7
  call void @llvm.lifetime.start.p0(i64 4, ptr %6) #7
  call void @llvm.lifetime.start.p0(i64 8, ptr %7) #7
  %17 = load ptr, ptr @X11_XQueryKeymap, align 8
  %18 = load ptr, ptr %4, align 8
  %19 = getelementptr inbounds [32 x i8], ptr %5, i64 0, i64 0
  %20 = call i32 %17(ptr noundef %18, ptr noundef %19)
  %21 = call ptr @SDL_GetKeyboardState_REAL(ptr noundef null)
  store ptr %21, ptr %7, align 8
  store i32 0, ptr %6, align 4
  br label %22

22:                                               ; preds = %82, %1
  %23 = load i32, ptr %6, align 4
  %24 = sext i32 %23 to i64
  %25 = icmp ult i64 %24, 256
  br i1 %25, label %26, label %85

26:                                               ; preds = %22
  call void @llvm.lifetime.start.p0(i64 4, ptr %8) #7
  %27 = load ptr, ptr %3, align 8
  %28 = getelementptr inbounds nuw %struct.SDL_VideoData, ptr %27, i32 0, i32 17
  %29 = load i32, ptr %6, align 4
  %30 = sext i32 %29 to i64
  %31 = getelementptr inbounds [256 x i32], ptr %28, i64 0, i64 %30
  %32 = load i32, ptr %31, align 4
  store i32 %32, ptr %8, align 4
  call void @llvm.lifetime.start.p0(i64 1, ptr %9) #7
  %33 = load i32, ptr %6, align 4
  %34 = sdiv i32 %33, 8
  %35 = sext i32 %34 to i64
  %36 = getelementptr inbounds [32 x i8], ptr %5, i64 0, i64 %35
  %37 = load i8, ptr %36, align 1
  %38 = sext i8 %37 to i32
  %39 = load i32, ptr %6, align 4
  %40 = srem i32 %39, 8
  %41 = shl i32 1, %40
  %42 = and i32 %38, %41
  %43 = icmp ne i32 %42, 0
  %44 = zext i1 %43 to i8
  store i8 %44, ptr %9, align 1
  call void @llvm.lifetime.start.p0(i64 1, ptr %10) #7
  %45 = load ptr, ptr %7, align 8
  %46 = load i32, ptr %8, align 4
  %47 = zext i32 %46 to i64
  %48 = getelementptr inbounds nuw i8, ptr %45, i64 %47
  %49 = load i8, ptr %48, align 1, !range !3, !noundef !4
  %50 = trunc i8 %49 to i1
  %51 = zext i1 %50 to i8
  store i8 %51, ptr %10, align 1
  %52 = load i8, ptr %9, align 1, !range !3, !noundef !4
  %53 = trunc i8 %52 to i1
  br i1 %53, label %54, label %68

54:                                               ; preds = %26
  %55 = load i8, ptr %10, align 1, !range !3, !noundef !4
  %56 = trunc i8 %55 to i1
  br i1 %56, label %68, label %57

57:                                               ; preds = %54
  %58 = load i32, ptr %8, align 4
  %59 = call i32 @SDL_GetKeyFromScancode_REAL(i32 noundef %58, i16 noundef zeroext 0, i1 noundef zeroext false)
  switch i32 %59, label %66 [
    i32 1073742048, label %60
    i32 1073742052, label %60
    i32 1073742049, label %60
    i32 1073742053, label %60
    i32 1073742050, label %60
    i32 1073742054, label %60
    i32 1073742051, label %60
    i32 1073742055, label %60
    i32 1073742081, label %60
    i32 536870914, label %60
  ]

60:                                               ; preds = %57, %57, %57, %57, %57, %57, %57, %57, %57, %57
  %61 = load ptr, ptr %3, align 8
  %62 = load i32, ptr %8, align 4
  call void @X11_HandleModifierKeys(ptr noundef %61, i32 noundef %62, i1 noundef zeroext true, i1 noundef zeroext false)
  %63 = load i32, ptr %6, align 4
  %64 = load i32, ptr %8, align 4
  %65 = call zeroext i1 @SDL_SendKeyboardKeyIgnoreModifiers(i64 noundef 0, i32 noundef 0, i32 noundef %63, i32 noundef %64, i1 noundef zeroext true)
  br label %67

66:                                               ; preds = %57
  br label %67

67:                                               ; preds = %66, %60
  br label %81

68:                                               ; preds = %54, %26
  %69 = load i8, ptr %9, align 1, !range !3, !noundef !4
  %70 = trunc i8 %69 to i1
  br i1 %70, label %80, label %71

71:                                               ; preds = %68
  %72 = load i8, ptr %10, align 1, !range !3, !noundef !4
  %73 = trunc i8 %72 to i1
  br i1 %73, label %74, label %80

74:                                               ; preds = %71
  %75 = load ptr, ptr %3, align 8
  %76 = load i32, ptr %8, align 4
  call void @X11_HandleModifierKeys(ptr noundef %75, i32 noundef %76, i1 noundef zeroext false, i1 noundef zeroext false)
  %77 = load i32, ptr %6, align 4
  %78 = load i32, ptr %8, align 4
  %79 = call zeroext i1 @SDL_SendKeyboardKeyIgnoreModifiers(i64 noundef 0, i32 noundef 0, i32 noundef %77, i32 noundef %78, i1 noundef zeroext false)
  br label %80

80:                                               ; preds = %74, %71, %68
  br label %81

81:                                               ; preds = %80, %67
  call void @llvm.lifetime.end.p0(i64 1, ptr %10) #7
  call void @llvm.lifetime.end.p0(i64 1, ptr %9) #7
  call void @llvm.lifetime.end.p0(i64 4, ptr %8) #7
  br label %82

82:                                               ; preds = %81
  %83 = load i32, ptr %6, align 4
  %84 = add nsw i32 %83, 1
  store i32 %84, ptr %6, align 4
  br label %22, !llvm.loop !5

85:                                               ; preds = %22
  %86 = load ptr, ptr %3, align 8
  call void @X11_UpdateSystemKeyModifiers(ptr noundef %86)
  %87 = load ptr, ptr %3, align 8
  call void @X11_ReconcileModifiers(ptr noundef %87)
  call void @llvm.lifetime.end.p0(i64 8, ptr %7) #7
  call void @llvm.lifetime.end.p0(i64 4, ptr %6) #7
  call void @llvm.lifetime.end.p0(i64 32, ptr %5) #7
  call void @llvm.lifetime.end.p0(i64 8, ptr %4) #7
  call void @llvm.lifetime.end.p0(i64 8, ptr %3) #7
  ret void
}