; Function Attrs: nounwind uwtable
define hidden void @X11_ReconcileKeyboardState(ptr noundef readonly captures(none) %0) local_unnamed_addr #1 {
  %2 = alloca i64, align 8
  %3 = alloca i32, align 4
  %4 = alloca i32, align 4
  %5 = alloca [32 x i8], align 16
  %6 = getelementptr inbounds nuw i8, ptr %0, i64 1656
  %7 = load ptr, ptr %6, align 8
  %8 = load ptr, ptr %7, align 8
  call void @llvm.lifetime.start.p0(i64 32, ptr nonnull %5) #12
  %9 = load ptr, ptr @X11_XQueryKeymap, align 8
  %10 = call i32 %9(ptr noundef %8, ptr noundef nonnull %5) #12
  %11 = call ptr @SDL_GetKeyboardState_REAL(ptr noundef null) #12
  %12 = getelementptr inbounds nuw i8, ptr %7, i64 616
  br label %13

13:                                               ; preds = %1, %33
  %indvars.iv = phi i64 [ 0, %1 ], [ %indvars.iv.next, %33 ]
  %14 = getelementptr inbounds nuw [256 x i32], ptr %12, i64 0, i64 %indvars.iv
  %15 = load i32, ptr %14, align 4
  %16 = trunc nuw nsw i64 %indvars.iv to i32
  %17 = lshr i64 %indvars.iv, 3
  %18 = and i64 %17, 536870911
  %19 = getelementptr inbounds nuw [32 x i8], ptr %5, i64 0, i64 %18
  %20 = load i8, ptr %19, align 1
  %21 = zext i8 %20 to i32
  %22 = and i32 %16, 7
  %23 = shl nuw nsw i32 1, %22
  %24 = and i32 %23, %21
  %.not30 = icmp eq i32 %24, 0
  %25 = zext i32 %15 to i64
  %26 = getelementptr inbounds nuw i8, ptr %11, i64 %25
  %27 = load i8, ptr %26, align 1, !range !3, !noundef !4
  %28 = trunc nuw i8 %27 to i1
  %or.cond = select i1 %.not30, i1 true, i1 %28
  br i1 %or.cond, label %31, label %29

29:                                               ; preds = %13
  %30 = call i32 @SDL_GetKeyFromScancode_REAL(i32 noundef %15, i16 noundef zeroext 0, i1 noundef zeroext false) #12
  switch i32 %30, label %33 [
    i32 1073742048, label %.sink.split
    i32 1073742052, label %.sink.split
    i32 1073742049, label %.sink.split
    i32 1073742053, label %.sink.split
    i32 1073742050, label %.sink.split
    i32 1073742054, label %.sink.split
    i32 1073742051, label %.sink.split
    i32 1073742055, label %.sink.split
    i32 1073742081, label %.sink.split
    i32 536870914, label %.sink.split
  ]

31:                                               ; preds = %13
  %or.cond4 = select i1 %.not30, i1 %28, i1 false
  br i1 %or.cond4, label %.sink.split, label %33

.sink.split:                                      ; preds = %31, %29, %29, %29, %29, %29, %29, %29, %29, %29, %29
  %.sink33 = xor i1 %or.cond, true
  call fastcc void @X11_HandleModifierKeys(ptr noundef nonnull %7, i32 noundef %15, i1 noundef zeroext %.sink33, i1 noundef zeroext false)
  %32 = call zeroext i1 @SDL_SendKeyboardKeyIgnoreModifiers(i64 noundef 0, i32 noundef 0, i32 noundef %16, i32 noundef %15, i1 noundef zeroext %.sink33) #12
  br label %33

33:                                               ; preds = %.sink.split, %31, %29
  %indvars.iv.next = add nuw nsw i64 %indvars.iv, 1
  %exitcond.not = icmp eq i64 %indvars.iv.next, 256
  br i1 %exitcond.not, label %34, label %13, !llvm.loop !5

34:                                               ; preds = %33
  call void @llvm.lifetime.start.p0(i64 8, ptr nonnull %2) #12
  call void @llvm.lifetime.start.p0(i64 4, ptr nonnull %3) #12
  call void @llvm.lifetime.start.p0(i64 4, ptr nonnull %4) #12
  %35 = load ptr, ptr @X11_XQueryPointer, align 8
  %36 = load ptr, ptr %7, align 8
  %37 = getelementptr inbounds nuw i8, ptr %36, i64 232
  %38 = load ptr, ptr %37, align 8
  %39 = getelementptr inbounds nuw i8, ptr %36, i64 224
  %40 = load i32, ptr %39, align 8
  %41 = sext i32 %40 to i64
  %42 = getelementptr inbounds %struct.Screen, ptr %38, i64 %41, i32 2
  %43 = load i64, ptr %42, align 8
  %44 = getelementptr inbounds nuw i8, ptr %7, i64 1712
  %45 = call i32 %35(ptr noundef %36, i64 noundef %43, ptr noundef nonnull %2, ptr noundef nonnull %2, ptr noundef nonnull %3, ptr noundef nonnull %4, ptr noundef nonnull %3, ptr noundef nonnull %4, ptr noundef nonnull %44) #12
  call void @llvm.lifetime.end.p0(i64 4, ptr nonnull %4) #12
  call void @llvm.lifetime.end.p0(i64 4, ptr nonnull %3) #12
  call void @llvm.lifetime.end.p0(i64 8, ptr nonnull %2) #12
  call fastcc void @X11_ReconcileModifiers(ptr noundef nonnull %7)
  call void @llvm.lifetime.end.p0(i64 32, ptr nonnull %5) #12
  ret void
}